target datalayout = "e-m:e-p270:32:32-p271:32:32-p272:64:64-i64:64-i128:128-f80:128-n8:16:32:64-S128"
target triple = "x86_64-pc-linux-gnu"

%union.ImGL3WProcs = type { [59 x ptr] }
%struct.anon.0 = type { ptr, ptr, ptr, ptr, ptr, ptr, ptr, ptr, ptr, ptr, ptr, ptr, ptr, ptr, ptr, ptr, ptr, ptr, ptr, ptr, ptr, ptr, ptr, ptr, ptr, ptr, ptr, ptr, ptr, ptr, ptr, ptr, ptr, ptr, ptr, ptr, ptr, ptr, ptr, ptr, ptr, ptr, ptr, ptr, ptr, ptr, ptr, ptr, ptr, ptr, ptr, ptr, ptr, ptr, ptr, ptr, ptr, ptr, ptr }
%struct.ImGuiIO = type { i32, i32, %struct.ImVec2, float, float, ptr, ptr, ptr, ptr, float, i8, ptr, %struct.ImVec2, i8, i8, i8, i8, i8, i8, i8, i8, i8, i8, float, float, float, float, float, float, i8, i8, i8, i8, i8, i8, i8, i8, i8, i8, ptr, ptr, ptr, ptr, ptr, i8, i8, i8, i8, i8, i8, i8, float, i32, i32, i32, i32, %struct.ImVec2, ptr, %struct.ImVec2, [5 x i8], float, float, i32, i8, i8, i8, i8, i32, [154 x %struct.ImGuiKeyData], i8, %struct.ImVec2, [5 x %struct.ImVec2], [5 x double], [5 x i8], [5 x i8], [5 x i16], [5 x i16], [5 x i8], [5 x i8], [5 x i8], i8, i8, [5 x float], [5 x float], [5 x float], float, i8, i8, i8, i8, i16, %struct.ImVector }
%struct.ImGuiKeyData = type { i8, float, float, float }
%struct.ImVec2 = type { float, float }
%struct.ImVector = type { i32, i32, ptr }
%struct.ImGui_ImplOpenGL3_Data = type <{ i32, [32 x i8], i8, i8, i8, i8, i32, i32, i32, i32, i32, i32, i32, i32, i32, i32, i64, i64, i8, i8, i8, [5 x i8] }>
%struct.ImDrawData = type { i8, i32, i32, i32, %struct.ImVector.1, %struct.ImVec2, %struct.ImVec2, %struct.ImVec2, ptr }
%struct.ImVector.1 = type { i32, i32, ptr }

@imgl3wProcs = dso_local global %union.ImGL3WProcs zeroinitializer, align 8

; Function Attrs: mustprogress uwtable
define internal noundef ptr @_ZL32ImGui_ImplOpenGL3_GetBackendDatav() #0 {
  %1 = call noundef ptr @_ZN5ImGui17GetCurrentContextEv()
  %2 = icmp ne ptr %1, null
  br i1 %2, label %3, label %7

3:                                                ; preds = %0
  %4 = call noundef nonnull align 8 dereferenceable(2944) ptr @_ZN5ImGui5GetIOEv()
  %5 = getelementptr inbounds nuw %struct.ImGuiIO, ptr %4, i32 0, i32 42
  %6 = load ptr, ptr %5, align 8, !tbaa !26
  br label %8

7:                                                ; preds = %0
  br label %8

8:                                                ; preds = %7, %3
  %9 = phi ptr [ %6, %3 ], [ null, %7 ]
  ret ptr %9
}

; Function Attrs: mustprogress uwtable
define internal void @_ZL34ImGui_ImplOpenGL3_SetupRenderStateP10ImDrawDataiij(ptr noundef %0, i32 noundef %1, i32 noundef %2, i32 noundef %3) #0 {
  %5 = alloca ptr, align 8
  %6 = alloca i32, align 4
  %7 = alloca i32, align 4
  %8 = alloca i32, align 4
  %9 = alloca ptr, align 8
  %10 = alloca i8, align 1
  %11 = alloca i32, align 4
  %12 = alloca float, align 4
  %13 = alloca float, align 4
  %14 = alloca float, align 4
  %15 = alloca float, align 4
  %16 = alloca float, align 4
  %17 = alloca [4 x [4 x float]], align 16
  store ptr %0, ptr %5, align 8, !tbaa !62
  store i32 %1, ptr %6, align 4, !tbaa !4
  store i32 %2, ptr %7, align 4, !tbaa !4
  store i32 %3, ptr %8, align 4, !tbaa !4
  call void @llvm.lifetime.start.p0(i64 8, ptr %9) #11
  %18 = call noundef ptr @_ZL32ImGui_ImplOpenGL3_GetBackendDatav()
  store ptr %18, ptr %9, align 8, !tbaa !24
  %19 = load ptr, ptr getelementptr inbounds nuw (%struct.anon.0, ptr @imgl3wProcs, i32 0, i32 26), align 8, !tbaa !14
  call void %19(i32 noundef 3042)
  %20 = load ptr, ptr getelementptr inbounds nuw (%struct.anon.0, ptr @imgl3wProcs, i32 0, i32 6), align 8, !tbaa !14
  call void %20(i32 noundef 32774)
  %21 = load ptr, ptr getelementptr inbounds nuw (%struct.anon.0, ptr @imgl3wProcs, i32 0, i32 8), align 8, !tbaa !14
  call void %21(i32 noundef 770, i32 noundef 771, i32 noundef 1, i32 noundef 771)
  %22 = load ptr, ptr getelementptr inbounds nuw (%struct.anon.0, ptr @imgl3wProcs, i32 0, i32 22), align 8, !tbaa !14
  call void %22(i32 noundef 2884)
  %23 = load ptr, ptr getelementptr inbounds nuw (%struct.anon.0, ptr @imgl3wProcs, i32 0, i32 22), align 8, !tbaa !14
  call void %23(i32 noundef 2929)
  %24 = load ptr, ptr getelementptr inbounds nuw (%struct.anon.0, ptr @imgl3wProcs, i32 0, i32 22), align 8, !tbaa !14
  call void %24(i32 noundef 2960)
  %25 = load ptr, ptr getelementptr inbounds nuw (%struct.anon.0, ptr @imgl3wProcs, i32 0, i32 26), align 8, !tbaa !14
  call void %25(i32 noundef 3089)
  %26 = load ptr, ptr %9, align 8, !tbaa !24
  %27 = getelementptr inbounds nuw %struct.ImGui_ImplOpenGL3_Data, ptr %26, i32 0, i32 0
  %28 = load i32, ptr %27, align 8, !tbaa !39
  %29 = icmp uge i32 %28, 310
  br i1 %29, label %30, label %32

30:                                               ; preds = %4
  %31 = load ptr, ptr getelementptr inbounds nuw (%struct.anon.0, ptr @imgl3wProcs, i32 0, i32 22), align 8, !tbaa !14
  call void %31(i32 noundef 36765)
  br label %32

32:                                               ; preds = %30, %4
  %33 = load ptr, ptr %9, align 8, !tbaa !24
  %34 = getelementptr inbounds nuw %struct.ImGui_ImplOpenGL3_Data, ptr %33, i32 0, i32 18
  %35 = load i8, ptr %34, align 8, !tbaa !49, !range !47, !noundef !48
  %36 = trunc i8 %35 to i1
  br i1 %36, label %37, label %39

37:                                               ; preds = %32
  %38 = load ptr, ptr getelementptr inbounds nuw (%struct.anon.0, ptr @imgl3wProcs, i32 0, i32 48), align 8, !tbaa !14
  call void %38(i32 noundef 1032, i32 noundef 6914)
  br label %39

39:                                               ; preds = %37, %32
  call void @llvm.lifetime.start.p0(i64 1, ptr %10) #11
  store i8 1, ptr %10, align 1, !tbaa !114
  %40 = load ptr, ptr %9, align 8, !tbaa !24
  %41 = getelementptr inbounds nuw %struct.ImGui_ImplOpenGL3_Data, ptr %40, i32 0, i32 19
  %42 = load i8, ptr %41, align 1, !tbaa !50, !range !47, !noundef !48
  %43 = trunc i8 %42 to i1
  br i1 %43, label %44, label %50

44:                                               ; preds = %39
  call void @llvm.lifetime.start.p0(i64 4, ptr %11) #11
  store i32 0, ptr %11, align 4, !tbaa !4
  %45 = load ptr, ptr getelementptr inbounds nuw (%struct.anon.0, ptr @imgl3wProcs, i32 0, i32 34), align 8, !tbaa !14
  call void %45(i32 noundef 37724, ptr noundef %11)
  %46 = load i32, ptr %11, align 4, !tbaa !4
  %47 = icmp eq i32 %46, 36002
  br i1 %47, label %48, label %49

48:                                               ; preds = %44
  store i8 0, ptr %10, align 1, !tbaa !114
  br label %49

49:                                               ; preds = %48, %44
  call void @llvm.lifetime.end.p0(i64 4, ptr %11) #11
  br label %50

50:                                               ; preds = %49, %39
  %51 = load ptr, ptr getelementptr inbounds nuw (%struct.anon.0, ptr @imgl3wProcs, i32 0, i32 58), align 8, !tbaa !14
  %52 = load i32, ptr %6, align 4, !tbaa !4
  %53 = load i32, ptr %7, align 4, !tbaa !4
  call void %51(i32 noundef 0, i32 noundef 0, i32 noundef %52, i32 noundef %53)
  call void @llvm.lifetime.start.p0(i64 4, ptr %12) #11
  %54 = load ptr, ptr %5, align 8, !tbaa !62
  %55 = getelementptr inbounds nuw %struct.ImDrawData, ptr %54, i32 0, i32 5
  %56 = getelementptr inbounds nuw %struct.ImVec2, ptr %55, i32 0, i32 0
  %57 = load float, ptr %56, align 8, !tbaa !115
  store float %57, ptr %12, align 4, !tbaa !73
  call void @llvm.lifetime.start.p0(i64 4, ptr %13) #11
  %58 = load ptr, ptr %5, align 8, !tbaa !62
  %59 = getelementptr inbounds nuw %struct.ImDrawData, ptr %58, i32 0, i32 5
  %60 = getelementptr inbounds nuw %struct.ImVec2, ptr %59, i32 0, i32 0
  %61 = load float, ptr %60, align 8, !tbaa !115
  %62 = load ptr, ptr %5, align 8, !tbaa !62
  %63 = getelementptr inbounds nuw %struct.ImDrawData, ptr %62, i32 0, i32 6
  %64 = getelementptr inbounds nuw %struct.ImVec2, ptr %63, i32 0, i32 0
  %65 = load float, ptr %64, align 8, !tbaa !64
  %66 = fadd float %61, %65
  store float %66, ptr %13, align 4, !tbaa !73
  call void @llvm.lifetime.start.p0(i64 4, ptr %14) #11
  %67 = load ptr, ptr %5, align 8, !tbaa !62
  %68 = getelementptr inbounds nuw %struct.ImDrawData, ptr %67, i32 0, i32 5
  %69 = getelementptr inbounds nuw %struct.ImVec2, ptr %68, i32 0, i32 1
  %70 = load float, ptr %69, align 4, !tbaa !116
  store float %70, ptr %14, align 4, !tbaa !73
  call void @llvm.lifetime.start.p0(i64 4, ptr %15) #11
  %71 = load ptr, ptr %5, align 8, !tbaa !62
  %72 = getelementptr inbounds nuw %struct.ImDrawData, ptr %71, i32 0, i32 5
  %73 = getelementptr inbounds nuw %struct.ImVec2, ptr %72, i32 0, i32 1
  %74 = load float, ptr %73, align 4, !tbaa !116
  %75 = load ptr, ptr %5, align 8, !tbaa !62
  %76 = getelementptr inbounds nuw %struct.ImDrawData, ptr %75, i32 0, i32 6
  %77 = getelementptr inbounds nuw %struct.ImVec2, ptr %76, i32 0, i32 1
  %78 = load float, ptr %77, align 4, !tbaa !70
  %79 = fadd float %74, %78
  store float %79, ptr %15, align 4, !tbaa !73
  %80 = load i8, ptr %10, align 1, !tbaa !114, !range !47, !noundef !48
  %81 = trunc i8 %80 to i1
  br i1 %81, label %86, label %82

82:                                               ; preds = %50
  call void @llvm.lifetime.start.p0(i64 4, ptr %16) #11
  %83 = load float, ptr %14, align 4, !tbaa !73
  store float %83, ptr %16, align 4, !tbaa !73
  %84 = load float, ptr %15, align 4, !tbaa !73
  store float %84, ptr %14, align 4, !tbaa !73
  %85 = load float, ptr %16, align 4, !tbaa !73
  store float %85, ptr %15, align 4, !tbaa !73
  call void @llvm.lifetime.end.p0(i64 4, ptr %16) #11
  br label %86

86:                                               ; preds = %82, %50
  call void @llvm.lifetime.start.p0(i64 64, ptr %17) #11
  %87 = load float, ptr %13, align 4, !tbaa !73
  %88 = load float, ptr %12, align 4, !tbaa !73
  %89 = fsub float %87, %88
  %90 = fdiv float 2.000000e+00, %89
  store float %90, ptr %17, align 4, !tbaa !73
  %91 = getelementptr inbounds float, ptr %17, i64 1
  store float 0.000000e+00, ptr %91, align 4, !tbaa !73
  %92 = getelementptr inbounds float, ptr %17, i64 2
  store float 0.000000e+00, ptr %92, align 4, !tbaa !73
  %93 = getelementptr inbounds float, ptr %17, i64 3
  store float 0.000000e+00, ptr %93, align 4, !tbaa !73
  %94 = getelementptr inbounds [4 x float], ptr %17, i64 1
  store float 0.000000e+00, ptr %94, align 4, !tbaa !73
  %95 = getelementptr inbounds float, ptr %94, i64 1
  %96 = load float, ptr %14, align 4, !tbaa !73
  %97 = load float, ptr %15, align 4, !tbaa !73
  %98 = fsub float %96, %97
  %99 = fdiv float 2.000000e+00, %98
  store float %99, ptr %95, align 4, !tbaa !73
  %100 = getelementptr inbounds float, ptr %94, i64 2
  store float 0.000000e+00, ptr %100, align 4, !tbaa !73
  %101 = getelementptr inbounds float, ptr %94, i64 3
  store float 0.000000e+00, ptr %101, align 4, !tbaa !73
  %102 = getelementptr inbounds [4 x float], ptr %17, i64 2
  store float 0.000000e+00, ptr %102, align 4, !tbaa !73
  %103 = getelementptr inbounds float, ptr %102, i64 1
  store float 0.000000e+00, ptr %103, align 4, !tbaa !73
  %104 = getelementptr inbounds float, ptr %102, i64 2
  store float -1.000000e+00, ptr %104, align 4, !tbaa !73
  %105 = getelementptr inbounds float, ptr %102, i64 3
  store float 0.000000e+00, ptr %105, align 4, !tbaa !73
  %106 = getelementptr inbounds [4 x float], ptr %17, i64 3
  %107 = load float, ptr %13, align 4, !tbaa !73
  %108 = load float, ptr %12, align 4, !tbaa !73
  %109 = fadd float %107, %108
  %110 = load float, ptr %12, align 4, !tbaa !73
  %111 = load float, ptr %13, align 4, !tbaa !73
  %112 = fsub float %110, %111
  %113 = fdiv float %109, %112
  store float %113, ptr %106, align 4, !tbaa !73
  %114 = getelementptr inbounds float, ptr %106, i64 1
  %115 = load float, ptr %14, align 4, !tbaa !73
  %116 = load float, ptr %15, align 4, !tbaa !73
  %117 = fadd float %115, %116
  %118 = load float, ptr %15, align 4, !tbaa !73
  %119 = load float, ptr %14, align 4, !tbaa !73
  %120 = fsub float %118, %119
  %121 = fdiv float %117, %120
  store float %121, ptr %114, align 4, !tbaa !73
  %122 = getelementptr inbounds float, ptr %106, i64 2
  store float 0.000000e+00, ptr %122, align 4, !tbaa !73
  %123 = getelementptr inbounds float, ptr %106, i64 3
  store float 1.000000e+00, ptr %123, align 4, !tbaa !73
  %124 = load ptr, ptr getelementptr inbounds nuw (%struct.anon.0, ptr @imgl3wProcs, i32 0, i32 56), align 8, !tbaa !14
  %125 = load ptr, ptr %9, align 8, !tbaa !24
  %126 = getelementptr inbounds nuw %struct.ImGui_ImplOpenGL3_Data, ptr %125, i32 0, i32 8
  %127 = load i32, ptr %126, align 8, !tbaa !54
  call void %124(i32 noundef %127)
  %128 = load ptr, ptr getelementptr inbounds nuw (%struct.anon.0, ptr @imgl3wProcs, i32 0, i32 54), align 8, !tbaa !14
  %129 = load ptr, ptr %9, align 8, !tbaa !24
  %130 = getelementptr inbounds nuw %struct.ImGui_ImplOpenGL3_Data, ptr %129, i32 0, i32 9
  %131 = load i32, ptr %130, align 4, !tbaa !56
  call void %128(i32 noundef %131, i32 noundef 0)
  %132 = load ptr, ptr getelementptr inbounds nuw (%struct.anon.0, ptr @imgl3wProcs, i32 0, i32 55), align 8, !tbaa !14
  %133 = load ptr, ptr %9, align 8, !tbaa !24
  %134 = getelementptr inbounds nuw %struct.ImGui_ImplOpenGL3_Data, ptr %133, i32 0, i32 10
  %135 = load i32, ptr %134, align 8, !tbaa !57
  %136 = getelementptr inbounds [4 x [4 x float]], ptr %17, i64 0, i64 0
  %137 = getelementptr inbounds [4 x float], ptr %136, i64 0, i64 0
  call void %132(i32 noundef %135, i32 noundef 1, i8 noundef zeroext 0, ptr noundef %137)
  %138 = load ptr, ptr %9, align 8, !tbaa !24
  %139 = getelementptr inbounds nuw %struct.ImGui_ImplOpenGL3_Data, ptr %138, i32 0, i32 0
  %140 = load i32, ptr %139, align 8, !tbaa !39
  %141 = icmp uge i32 %140, 330
  br i1 %141, label %147, label %142

142:                                              ; preds = %86
  %143 = load ptr, ptr %9, align 8, !tbaa !24
  %144 = getelementptr inbounds nuw %struct.ImGui_ImplOpenGL3_Data, ptr %143, i32 0, i32 3
  %145 = load i8, ptr %144, align 1, !tbaa !43, !range !47, !noundef !48
  %146 = trunc i8 %145 to i1
  br i1 %146, label %147, label %149

147:                                              ; preds = %142, %86
  %148 = load ptr, ptr getelementptr inbounds nuw (%struct.anon.0, ptr @imgl3wProcs, i32 0, i32 3), align 8, !tbaa !14
  call void %148(i32 noundef 0, i32 noundef 0)
  br label %149

149:                                              ; preds = %147, %142
  %150 = load ptr, ptr getelementptr inbounds nuw (%struct.anon.0, ptr @imgl3wProcs, i32 0, i32 5), align 8, !tbaa !14
  %151 = load i32, ptr %8, align 4, !tbaa !4
  call void %150(i32 noundef %151)
  %152 = load ptr, ptr getelementptr inbounds nuw (%struct.anon.0, ptr @imgl3wProcs, i32 0, i32 2), align 8, !tbaa !14
  %153 = load ptr, ptr %9, align 8, !tbaa !24
  %154 = getelementptr inbounds nuw %struct.ImGui_ImplOpenGL3_Data, ptr %153, i32 0, i32 14
  %155 = load i32, ptr %154, align 8, !tbaa !52
  call void %152(i32 noundef 34962, i32 noundef %155)
  %156 = load ptr, ptr getelementptr inbounds nuw (%struct.anon.0, ptr @imgl3wProcs, i32 0, i32 2), align 8, !tbaa !14
  %157 = load ptr, ptr %9, align 8, !tbaa !24
  %158 = getelementptr inbounds nuw %struct.ImGui_ImplOpenGL3_Data, ptr %157, i32 0, i32 15
  %159 = load i32, ptr %158, align 4, !tbaa !53
  call void %156(i32 noundef 34963, i32 noundef %159)
  %160 = load ptr, ptr getelementptr inbounds nuw (%struct.anon.0, ptr @imgl3wProcs, i32 0, i32 27), align 8, !tbaa !14
  %161 = load ptr, ptr %9, align 8, !tbaa !24
  %162 = getelementptr inbounds nuw %struct.ImGui_ImplOpenGL3_Data, ptr %161, i32 0, i32 11
  %163 = load i32, ptr %162, align 4, !tbaa !58
  call void %160(i32 noundef %163)
  %164 = load ptr, ptr getelementptr inbounds nuw (%struct.anon.0, ptr @imgl3wProcs, i32 0, i32 27), align 8, !tbaa !14
  %165 = load ptr, ptr %9, align 8, !tbaa !24
  %166 = getelementptr inbounds nuw %struct.ImGui_ImplOpenGL3_Data, ptr %165, i32 0, i32 12
  %167 = load i32, ptr %166, align 8, !tbaa !59
  call void %164(i32 noundef %167)
  %168 = load ptr, ptr getelementptr inbounds nuw (%struct.anon.0, ptr @imgl3wProcs, i32 0, i32 27), align 8, !tbaa !14
  %169 = load ptr, ptr %9, align 8, !tbaa !24
  %170 = getelementptr inbounds nuw %struct.ImGui_ImplOpenGL3_Data, ptr %169, i32 0, i32 13
  %171 = load i32, ptr %170, align 4, !tbaa !60
  call void %168(i32 noundef %171)
  %172 = load ptr, ptr getelementptr inbounds nuw (%struct.anon.0, ptr @imgl3wProcs, i32 0, i32 57), align 8, !tbaa !14
  %173 = load ptr, ptr %9, align 8, !tbaa !24
  %174 = getelementptr inbounds nuw %struct.ImGui_ImplOpenGL3_Data, ptr %173, i32 0, i32 11
  %175 = load i32, ptr %174, align 4, !tbaa !58
  call void %172(i32 noundef %175, i32 noundef 2, i32 noundef 5126, i8 noundef zeroext 0, i32 noundef 20, ptr noundef null)
  %176 = load ptr, ptr getelementptr inbounds nuw (%struct.anon.0, ptr @imgl3wProcs, i32 0, i32 57), align 8, !tbaa !14
  %177 = load ptr, ptr %9, align 8, !tbaa !24
  %178 = getelementptr inbounds nuw %struct.ImGui_ImplOpenGL3_Data, ptr %177, i32 0, i32 12
  %179 = load i32, ptr %178, align 8, !tbaa !59
  call void %176(i32 noundef %179, i32 noundef 2, i32 noundef 5126, i8 noundef zeroext 0, i32 noundef 20, ptr noundef inttoptr (i64 8 to ptr))
  %180 = load ptr, ptr getelementptr inbounds nuw (%struct.anon.0, ptr @imgl3wProcs, i32 0, i32 57), align 8, !tbaa !14
  %181 = load ptr, ptr %9, align 8, !tbaa !24
  %182 = getelementptr inbounds nuw %struct.ImGui_ImplOpenGL3_Data, ptr %181, i32 0, i32 13
  %183 = load i32, ptr %182, align 4, !tbaa !60
  call void %180(i32 noundef %183, i32 noundef 4, i32 noundef 5121, i8 noundef zeroext 1, i32 noundef 20, ptr noundef inttoptr (i64 16 to ptr))
  call void @llvm.lifetime.end.p0(i64 64, ptr %17) #11
  call void @llvm.lifetime.end.p0(i64 4, ptr %15) #11
  call void @llvm.lifetime.end.p0(i64 4, ptr %14) #11
  call void @llvm.lifetime.end.p0(i64 4, ptr %13) #11
  call void @llvm.lifetime.end.p0(i64 4, ptr %12) #11
  call void @llvm.lifetime.end.p0(i64 1, ptr %10) #11
  call void @llvm.lifetime.end.p0(i64 8, ptr %9) #11
  ret void
}