; Function Attrs: mustprogress uwtable
define internal fastcc void @_ZL34ImGui_ImplOpenGL3_SetupRenderStateP10ImDrawDataiij(ptr noundef readonly captures(none) %0, i32 noundef range(i32 1, -2147483648) %1, i32 noundef range(i32 1, -2147483648) %2, i32 noundef %3) unnamed_addr #0 {
  %5 = alloca i32, align 4
  %6 = alloca [4 x [4 x float]], align 16
  %7 = tail call noundef ptr @_ZN5ImGui17GetCurrentContextEv()
  %.not.i = icmp eq ptr %7, null
  br i1 %.not.i, label %_ZL32ImGui_ImplOpenGL3_GetBackendDatav.exit, label %8

8:                                                ; preds = %4
  %9 = tail call noundef nonnull align 8 dereferenceable(2944) ptr @_ZN5ImGui5GetIOEv()
  %10 = getelementptr inbounds nuw i8, ptr %9, i64 152
  %11 = load ptr, ptr %10, align 8, !tbaa !19
  br label %_ZL32ImGui_ImplOpenGL3_GetBackendDatav.exit

_ZL32ImGui_ImplOpenGL3_GetBackendDatav.exit:      ; preds = %4, %8
  %12 = phi ptr [ %11, %8 ], [ null, %4 ]
  %13 = load ptr, ptr getelementptr inbounds nuw (i8, ptr @imgl3wProcs, i64 208), align 8, !tbaa !10
  tail call void %13(i32 noundef 3042)
  %14 = load ptr, ptr getelementptr inbounds nuw (i8, ptr @imgl3wProcs, i64 48), align 8, !tbaa !10
  tail call void %14(i32 noundef 32774)
  %15 = load ptr, ptr getelementptr inbounds nuw (i8, ptr @imgl3wProcs, i64 64), align 8, !tbaa !10
  tail call void %15(i32 noundef 770, i32 noundef 771, i32 noundef 1, i32 noundef 771)
  %16 = load ptr, ptr getelementptr inbounds nuw (i8, ptr @imgl3wProcs, i64 176), align 8, !tbaa !10
  tail call void %16(i32 noundef 2884)
  %17 = load ptr, ptr getelementptr inbounds nuw (i8, ptr @imgl3wProcs, i64 176), align 8, !tbaa !10
  tail call void %17(i32 noundef 2929)
  %18 = load ptr, ptr getelementptr inbounds nuw (i8, ptr @imgl3wProcs, i64 176), align 8, !tbaa !10
  tail call void %18(i32 noundef 2960)
  %19 = load ptr, ptr getelementptr inbounds nuw (i8, ptr @imgl3wProcs, i64 208), align 8, !tbaa !10
  tail call void %19(i32 noundef 3089)
  %20 = load i32, ptr %12, align 8, !tbaa !33
  %21 = icmp ugt i32 %20, 309
  br i1 %21, label %22, label %24

22:                                               ; preds = %_ZL32ImGui_ImplOpenGL3_GetBackendDatav.exit
  %23 = load ptr, ptr getelementptr inbounds nuw (i8, ptr @imgl3wProcs, i64 176), align 8, !tbaa !10
  tail call void %23(i32 noundef 36765)
  br label %24

24:                                               ; preds = %22, %_ZL32ImGui_ImplOpenGL3_GetBackendDatav.exit
  %25 = getelementptr inbounds nuw i8, ptr %12, i64 96
  %26 = load i8, ptr %25, align 8, !tbaa !44, !range !42, !noundef !43
  %27 = trunc nuw i8 %26 to i1
  br i1 %27, label %28, label %30

28:                                               ; preds = %24
  %29 = load ptr, ptr getelementptr inbounds nuw (i8, ptr @imgl3wProcs, i64 384), align 8, !tbaa !10
  tail call void %29(i32 noundef 1032, i32 noundef 6914)
  br label %30

30:                                               ; preds = %28, %24
  %31 = getelementptr inbounds nuw i8, ptr %12, i64 97
  %32 = load i8, ptr %31, align 1, !tbaa !45, !range !42, !noundef !43
  %33 = trunc nuw i8 %32 to i1
  br i1 %33, label %34, label %38

34:                                               ; preds = %30
  call void @llvm.lifetime.start.p0(i64 4, ptr nonnull %5) #17
  store i32 0, ptr %5, align 4, !tbaa !32
  %35 = load ptr, ptr getelementptr inbounds nuw (i8, ptr @imgl3wProcs, i64 272), align 8, !tbaa !10
  call void %35(i32 noundef 37724, ptr noundef nonnull %5)
  %36 = load i32, ptr %5, align 4, !tbaa !32
  %.fr = freeze i32 %36
  %37 = icmp ne i32 %.fr, 36002
  call void @llvm.lifetime.end.p0(i64 4, ptr nonnull %5) #17
  br label %38

38:                                               ; preds = %34, %30
  %.0 = phi i1 [ %37, %34 ], [ true, %30 ]
  %39 = load ptr, ptr getelementptr inbounds nuw (i8, ptr @imgl3wProcs, i64 464), align 8, !tbaa !10
  call void %39(i32 noundef 0, i32 noundef 0, i32 noundef %1, i32 noundef %2)
  %40 = getelementptr inbounds nuw i8, ptr %0, i64 32
  %41 = load float, ptr %40, align 8, !tbaa !120
  %42 = getelementptr inbounds nuw i8, ptr %0, i64 40
  %43 = load float, ptr %42, align 8, !tbaa !71
  %44 = fadd float %41, %43
  %45 = getelementptr inbounds nuw i8, ptr %0, i64 36
  %46 = load float, ptr %45, align 4, !tbaa !121
  %47 = getelementptr inbounds nuw i8, ptr %0, i64 44
  %48 = load float, ptr %47, align 4, !tbaa !77
  %49 = fadd float %46, %48
  %50 = select i1 %.0, float %46, float %49
  %51 = select i1 %.0, float %49, float %46
  call void @llvm.lifetime.start.p0(i64 64, ptr nonnull %6) #17
  %52 = fsub float %44, %41
  %53 = fdiv float 2.000000e+00, %52
  store float %53, ptr %6, align 16, !tbaa !79
  %54 = getelementptr inbounds nuw i8, ptr %6, i64 4
  %55 = getelementptr inbounds nuw i8, ptr %6, i64 20
  %56 = fsub float %50, %51
  %57 = fdiv float 2.000000e+00, %56
  call void @llvm.memset.p0.i64(ptr noundef nonnull align 4 dereferenceable(16) %54, i8 0, i64 16, i1 false)
  store float %57, ptr %55, align 4, !tbaa !79
  %58 = getelementptr inbounds nuw i8, ptr %6, i64 24
  %59 = getelementptr inbounds nuw i8, ptr %6, i64 40
  call void @llvm.memset.p0.i64(ptr noundef nonnull align 8 dereferenceable(16) %58, i8 0, i64 16, i1 false)
  store float -1.000000e+00, ptr %59, align 8, !tbaa !79
  %60 = getelementptr inbounds nuw i8, ptr %6, i64 44
  store float 0.000000e+00, ptr %60, align 4, !tbaa !79
  %61 = getelementptr inbounds nuw i8, ptr %6, i64 48
  %62 = fadd float %41, %44
  %63 = fsub float %41, %44
  %64 = fdiv float %62, %63
  store float %64, ptr %61, align 16, !tbaa !79
  %65 = getelementptr inbounds nuw i8, ptr %6, i64 52
  %66 = fadd float %46, %49
  %67 = fsub float %51, %50
  %68 = fdiv float %66, %67
  store float %68, ptr %65, align 4, !tbaa !79
  %69 = getelementptr inbounds nuw i8, ptr %6, i64 56
  store float 0.000000e+00, ptr %69, align 8, !tbaa !79
  %70 = getelementptr inbounds nuw i8, ptr %6, i64 60
  store float 1.000000e+00, ptr %70, align 4, !tbaa !79
  %71 = load ptr, ptr getelementptr inbounds nuw (i8, ptr @imgl3wProcs, i64 448), align 8, !tbaa !10
  %72 = getelementptr inbounds nuw i8, ptr %12, i64 48
  %73 = load i32, ptr %72, align 8, !tbaa !49
  call void %71(i32 noundef %73)
  %74 = load ptr, ptr getelementptr inbounds nuw (i8, ptr @imgl3wProcs, i64 432), align 8, !tbaa !10
  %75 = getelementptr inbounds nuw i8, ptr %12, i64 52
  %76 = load i32, ptr %75, align 4, !tbaa !66
  call void %74(i32 noundef %76, i32 noundef 0)
  %77 = load ptr, ptr getelementptr inbounds nuw (i8, ptr @imgl3wProcs, i64 440), align 8, !tbaa !10
  %78 = getelementptr inbounds nuw i8, ptr %12, i64 56
  %79 = load i32, ptr %78, align 8, !tbaa !67
  call void %77(i32 noundef %79, i32 noundef 1, i8 noundef zeroext 0, ptr noundef nonnull %6)
  %80 = load i32, ptr %12, align 8, !tbaa !33
  %81 = icmp ugt i32 %80, 329
  br i1 %81, label %86, label %82

82:                                               ; preds = %38
  %83 = getelementptr inbounds nuw i8, ptr %12, i64 37
  %84 = load i8, ptr %83, align 1, !tbaa !38, !range !42, !noundef !43
  %85 = trunc nuw i8 %84 to i1
  br i1 %85, label %86, label %88

86:                                               ; preds = %82, %38
  %87 = load ptr, ptr getelementptr inbounds nuw (i8, ptr @imgl3wProcs, i64 24), align 8, !tbaa !10
  call void %87(i32 noundef 0, i32 noundef 0)
  br label %88

88:                                               ; preds = %86, %82
  %89 = load ptr, ptr getelementptr inbounds nuw (i8, ptr @imgl3wProcs, i64 40), align 8, !tbaa !10
  call void %89(i32 noundef %3)
  %90 = load ptr, ptr getelementptr inbounds nuw (i8, ptr @imgl3wProcs, i64 16), align 8, !tbaa !10
  %91 = getelementptr inbounds nuw i8, ptr %12, i64 72
  %92 = load i32, ptr %91, align 8, !tbaa !47
  call void %90(i32 noundef 34962, i32 noundef %92)
  %93 = load ptr, ptr getelementptr inbounds nuw (i8, ptr @imgl3wProcs, i64 16), align 8, !tbaa !10
  %94 = getelementptr inbounds nuw i8, ptr %12, i64 76
  %95 = load i32, ptr %94, align 4, !tbaa !48
  call void %93(i32 noundef 34963, i32 noundef %95)
  %96 = load ptr, ptr getelementptr inbounds nuw (i8, ptr @imgl3wProcs, i64 216), align 8, !tbaa !10
  %97 = getelementptr inbounds nuw i8, ptr %12, i64 60
  %98 = load i32, ptr %97, align 4, !tbaa !68
  call void %96(i32 noundef %98)
  %99 = load ptr, ptr getelementptr inbounds nuw (i8, ptr @imgl3wProcs, i64 216), align 8, !tbaa !10
  %100 = getelementptr inbounds nuw i8, ptr %12, i64 64
  %101 = load i32, ptr %100, align 8, !tbaa !69
  call void %99(i32 noundef %101)
  %102 = load ptr, ptr getelementptr inbounds nuw (i8, ptr @imgl3wProcs, i64 216), align 8, !tbaa !10
  %103 = getelementptr inbounds nuw i8, ptr %12, i64 68
  %104 = load i32, ptr %103, align 4, !tbaa !70
  call void %102(i32 noundef %104)
  %105 = load ptr, ptr getelementptr inbounds nuw (i8, ptr @imgl3wProcs, i64 456), align 8, !tbaa !10
  %106 = load i32, ptr %97, align 4, !tbaa !68
  call void %105(i32 noundef %106, i32 noundef 2, i32 noundef 5126, i8 noundef zeroext 0, i32 noundef 20, ptr noundef null)
  %107 = load ptr, ptr getelementptr inbounds nuw (i8, ptr @imgl3wProcs, i64 456), align 8, !tbaa !10
  %108 = load i32, ptr %100, align 8, !tbaa !69
  call void %107(i32 noundef %108, i32 noundef 2, i32 noundef 5126, i8 noundef zeroext 0, i32 noundef 20, ptr noundef nonnull inttoptr (i64 8 to ptr))
  %109 = load ptr, ptr getelementptr inbounds nuw (i8, ptr @imgl3wProcs, i64 456), align 8, !tbaa !10
  %110 = load i32, ptr %103, align 4, !tbaa !70
  call void %109(i32 noundef %110, i32 noundef 4, i32 noundef 5121, i8 noundef zeroext 1, i32 noundef 20, ptr noundef nonnull inttoptr (i64 16 to ptr))
  call void @llvm.lifetime.end.p0(i64 64, ptr nonnull %6) #17
  ret void
}